ARM GAS  1.s 			page 1


   1              		@SCI_SPI
   2              		@SCI简单SPI主模式
   3              		.thumb
   4              		.syntax unified
   5              		.section .text
   6              	vectors:
   7 0000 00410020 		.word zhanding
   8 0004 C1000000 		.word kaishi + 1
   9 0008 E1010000 		.word _nmi	+1
  10 000c E1010000 		.word _Hard_Fault +1
  11 0010 00000000 		.word 0
  12 0014 00000000 		.word 0
  13 0018 00000000 		.word 0
  14 001c 00000000 		.word 0
  15 0020 00000000 		.word 0
  16 0024 00000000 		.word 0
  17 0028 00000000 		.word 0
  18 002c E1010000 		.word _svc_handler +1
  19 0030 00000000 		.word 0
  20 0034 00000000 		.word 0
  21 0038 E1010000 		.word _pendsv_handler +1
  22 003c E1010000 		.word _systickzhongduan +1  @ 15
  23 0040 E9010000 		.word __adc120_adi +1                @ 0
  24 0044 FB010000 		.word aaa +1	            @ 1
  25 0048 FB010000 		.word aaa +1                @ 2
  26 004c FB010000 		.word aaa +1                @ 3
  27 0050 FB010000 		.word aaa +1                @ 4
  28 0054 FB010000 		.word aaa +1         	    @ 5
  29 0058 FB010000 		.word aaa +1                @ 6
  30 005c FB010000 		.word aaa +1                @ 7
  31 0060 FB010000 		.word aaa +1                @ 8
  32 0064 FB010000 		.word aaa +1                @ 9
  33 0068 FB010000 		.word aaa +1                @ 10
  34 006c FB010000 		.word aaa +1                @ 11
  35 0070 FB010000 		.word aaa +1                @ 12
  36 0074 FB010000 		.word aaa +1                @ 13
  37 0078 FB010000 		.word aaa +1                @ 14
  38 007c FB010000 		.word aaa +1                @ 15
  39 0080 FB010000 		.word aaa +1                @ 16
  40 0084 FB010000 		.word aaa +1                @ 17
  41 0088 FB010000 		.word aaa +1                @ 18
  42 008c FB010000 		.word aaa +1                @ 19
  43 0090 FB010000 		.word aaa +1                @ 20
  44 0094 FB010000 		.word aaa +1                @ 21
  45 0098 FB010000 		.word aaa +1                @ 22
  46 009c FB010000 		.word aaa +1                @ 23
  47 00a0 FB010000 		.word aaa +1                @ 24
  48 00a4 FB010000 		.word aaa +1                @ 25
  49 00a8 FB010000 		.word aaa +1                @ 26
  50 00ac FB010000 		.word aaa +1                @ 27
  51 00b0 FB010000 		.word aaa +1		    @ 28
  52 00b4 FB010000 		.word aaa +1		    @ 29
  53 00b8 FB010000 		.word aaa +1		    @ 30
  54 00bc FB010000 		.word aaa +1		    @ 31
  55              	kaishi:
  56              		@bkpt # 1
  57              	shizhong:
ARM GAS  1.s 			page 2


  58 00c0 4F48     		ldr r0, = 0x4001e000
  59 00c2 40F2FE32 		movw r2, # 0x3fe
  60 00c6 4AF20151 		movw r1, # 0xa501
  61 00ca 8152     		strh r1, [r0, r2]	@解锁时钟配置寄存器
  62 00cc 0021     		movs r1, # 0
  63 00ce 4186     		strh r1, [r0, # 0x32]	@主时钟开
  64              	__deng_zhu_shi_zhong_wen_ding:
  65 00d0 C16B     		ldr r1, [r0, # 0x3c]
  66 00d2 0907     		lsls r1, r1, # 28
  67 00d4 FCD5     		bpl __deng_zhu_shi_zhong_wen_ding
  68 00d6 0321     		movs r1, # 0x03
  69 00d8 C184     		strh r1, [r0, # 0x26]	@主时钟作为时钟源
  70 00da 0021     		movs r1, # 0
  71 00dc 0162     		str r1, [r0, # 0x20]
  72              	
  73              	_neicunqingling:
  74 00de 4948     		ldr r0, = 0x20005000
  75 00e0 494A     		ldr r2, = 0x20004000
  76 00e2 0021     		movs r1, # 0
  77              	_neicunqinglingxunhuan:
  78 00e4 0438     		subs r0, r0, # 4
  79 00e6 0160     		str r1, [r0]
  80 00e8 9042     		cmp r0, r2
  81 00ea FBD1     		bne _neicunqinglingxunhuan
  82              	
  83              		
  84              		@@@@@@@@@@@@@@@@@@@@@@@@@@@@@@@@@@@@@@@@@@@@@@@@@@@@@
  85              		@IO设置@
  86              		@0x40040000+0x20*m(0-9)
  87              		@0X00=PCNTR1/PODR (0=输入，1=输出)
  88              		@0x02=PDR (0=输出低，1=输出高)
  89              		@0x04=PCNTR2/EIDR (输入状态：0=低，1=高)
  90              		@0x06=PIDR (ECL_PORT端口事件输入数据：0=低，1=高)
  91              		@0x08=PCNTR3/PORR (0=不影响别的位，1=高)
  92              		@0x0a=POSR (0不影响别的位，1=低)
  93              		@0x0c=PCNTR4/EORR (ELC_PORT: 0=不影响别的端口，1=高)
  94              		@0x0e=EOSR	(ELC_PORT:0不影响别的端口，1=低)
  95              		@PFS = 0x4004_0800
  96              		@0x000 + 0x040 × m + 0x004 × n (PmnPFS)
  97              		@0x002 + 0x040 × m + 0x004 × n (PmnPFS_HA)
  98              		@0x003 + 0x040 × m + 0x004 × n (PmnPFS_)
  99              		@P108、P201、P300的初始值不为0x00000000
 100              		@P108初始值为0x00010010
 101              		@P201初始值为0x00000010
 102              		@P201初始值为0x00000010
 103              		@P300为0x00010010
 104              		@位0=端口输出数据（0=低，1=高），位1=PIDR状态（0=低，1=高）
 105              		@位2=端口方向（1=输入，0=输出），位4=拉（0=禁输入上拉，1=输入上拉）
 106              		@位6=开漏（0=CMOS输出，1=NMOS开漏输出）
 107              		@位12-13上下事件（00=不关心，01=检测上升，10=检测下降）
 108              		@位14 IRQ（0不作为IRQ输入引脚，1作为IRQ输入引脚）
 109              		@位15 模拟功能（0=不作为模拟引脚，1=作为模拟引脚）
 110              		@位16复用（0=作为通用IO，1=作为外设IO）
 111              		@位24-28 外设选择
 112              		@写保护=0x40040800+0x503
 113              		@位6（0=禁止写PmnPFS寄存器，1=使能写PmnPFS寄存器）
 114              		@位7（0=使能写PFSWE位，1=禁止写PFSWE位）
ARM GAS  1.s 			page 3


 115              		@端口读取等待控制=0x40040800+0x50f
 116              		@位0-1（00=设置禁止,01=插入1周期等待)
 117              		@      (02=插入2周期等待,03=插入3周期等待）
 118              	
 119              		
 120 00ec 4748     		ldr r0, = 0x40040000
 121 00ee 0121     		movs r1, #  0x01
 122 00f0 4180     		strh r1, [r0, # 0x02]
 123 00f2 0121     		movs r1, # 0x01
 124 00f4 4181     		strh r1, [r0, # 0x0a]
 125              		
 126 00f6 464B     		ldr r3, = 0x40040800
 127 00f8 40F20352 		movw r2, # 0x503
 128 00fc 0021     		movs r1, # 0
 129 00fe 9954     		strb r1, [r3, r2]
 130 0100 4021     		movs r1, # 0x40
 131 0102 9954     		strb r1, [r3, r2]
 132              		
 133 0104 40F20012 		movw r2, # 0x100
 134 0108 D218     		adds r2, r2, r3
 135 010a 4249     		ldr r1, = 0x3010000
 136 010c 1160     		str r1, [r2]
 137              	
 138 010e 4822     		movs r2, # 0x48
 139 0110 4149     		ldr r1, = 0x4010000
 140 0112 D218     		adds r2, r2, r3
 141 0114 1160     		str r1, [r2]		@P102开SCK0
 142              		
 143 0116 4422     		movs r2, # 0x44
 144 0118 D218     		adds r2, r2, r3
 145 011a 1160     		str r1, [r2]		@p101开MOSI
 146              	
 147              	__mo_kuai_kong_zhi:			@外设模块开关
 148 011c 3F48     		ldr r0, = 0x4001e3fe
 149 011e 4AF20351 		ldr r1, = 0xa503
 150 0122 0180     		strh r1, [r0]
 151 0124 3E48     		ldr r0, = 0x40047000
 152 0126 3F49     		ldr r1, = 0xfffebfbf
 153 0128 8160     		str r1, [r0, # 0x08]
 154 012a 3F49     		ldr r1, = 0x7fffffff
 155 012c 0160     		str r1, [r0]		@开SCI0
 156 012e 3F49     		ldr r1, = 0xffffbfff
 157 0130 4160     		str r1, [r0, # 0x04]
 158 0132 3348     		ldr r0, = 0x4001e000
 159 0134 3E49     		ldr r1, = 0xffbfffff
 160 0136 0160     		str r1, [r0]		@开DTC模块
 161              	
 162              	__sci_chushihua:
 163 0138 0021     	        movs r1, # 0
 164 013a 8170     		strb r1, [r0, 0x02]     @SCR
 165 013c F221     		movs r1, # 0xf2
 166 013e 8171     		strb r1, [r0, # 0x06]	@SMIF=0
 167 0140 0021     		movs r1, # 0x00
 168 0142 4172     		strb r1, [r0, # 0x09]	@IICM=0
 169 0144 4173     		strb r1, [r0, # 0x0d]	@SSE=0
 170              	
 171 0146 3B48     		ldr r0, = 0x40070000
ARM GAS  1.s 			page 4


 172 0148 1321     		movs r1, # 19
 173 014a 4170     		strb r1, [r0, # 0x01]
 174 014c 8021     		movs r1, # 0x80
 175 014e 0170     		strb r1, [r0]   @
 176              		
 177 0150 2021     		movs r1, # 0x20 @0x21
 178 0152 8170     		strb r1, [r0, 0x02]	@SCR
 179              	
 180              	spi:
 181 0154 3748     		ldr r0, = 0x40070000
 182 0156 A521     		movs r1, # 0xa5
 183 0158 C170     		strb r1, [r0, # 0x03]
 184 015a FBE7     		b spi
 185              		
 186              		
 187              	
 188              	@__systick_zhongduan:
 189              	@	ldr r0, = 0xe000e010
 190              	@	ldr r1, = 199999
 191              	@	str r1, [r0, # 4]
 192              	@	str r1, [r0, # 8]
 193              	@	movs r1, # 0x07
 194              	@	str r1, [r0]    @systick 开
 195              	
 196              	__kai_nvic_iser:
 197 015c 3648     		ldr r0, = 0xe000e100
 198 015e 40F20101 		ldr r1, =  1
 199 0162 0160     		str r1, [r0]
 200              	
 201              	__adc_shezhi:
 202 0164 3548     		ldr r0, = 0x4005c000
 203 0166 40F20011 		movw r1, # 0x100
 204 016a 4182     		strh r1, [r0, # 0x12]
 205 016c 46F24001 		movw r1, # 0x6040
 206 0170 0180     		strh r1, [r0]
 207 0172 4EF20001 		movw r1, # 0xe000
 208 0176 0180     		strh r1, [r0]
 209              		
 210              	@	bkpt # 3
 211              	__icu_dtc:
 212 0178 3149     		ldr r1, = 0x20004080
 213 017a 324A     		ldr r2, = 0x4005c01a
 214 017c 4A60     		str r2, [r1, # 0x04]	@传输源
 215 017e 324A     		ldr r2, = 0x20004800
 216 0180 8A60     		str r2, [r1, # 0x08]	@传输目的地
 217 0182 4FF60072 		movw r2, # 0xff00
 218 0186 CA81     		strh r2, [r1, # 0x0e]	@传输数量
 219 0188 5022     		movs r2, # 0x50
 220 018a CA70     		strb r2, [r1, # 0x03]	@MRA
 221 018c 0822     		movs r2, # 0x08
 222 018e 8A70     		strb r2, [r1, # 0x02]	@MRB
 223              		
 224 0190 2E48     	        ldr r0, = 0x40005400
 225 0192 1D4A     		ldr r2, = 0x20004000
 226 0194 4260     		str r2, [r0, # 0x04]    @DTCVBR
 227 0196 1160     		str r1, [r2]
 228 0198 0821     		movs r1, # 0x08		
ARM GAS  1.s 			page 5


 229 019a 0170     		strb r1, [r0]
 230              	
 231 019c 2C4A     		ldr r2, = 0x40006300
 232 019e 2D49     		ldr r1, = 0x1000007     @DTC
 233 01a0 1160     		str r1, [r2]
 234              	
 235 01a2 0121     		movs r1, # 0x01
 236 01a4 0173     		strb r1, [r0, # 0x0c]	@开DTC
 237              		
 238              	__gpt_shezhi:				@定时器初始化
 239 01a6 2C48     		ldr r0, = 0x40078900	@GPT，4=0X400到9=0X900
 240 01a8 4AF20051 		movw r1, # 0xa500
 241 01ac 0180     		strh r1, [r0]
 242 01ae 40F20021 		movw r1, # 0x200
 243 01b2 4160     		str r1, [r0, # 0x04]	@开GPT,0、4-9
 244 01b4 0121     		movs r1, # 0x01
 245 01b6 C162     		str r1, [r0, # 0x2c]
 246 01b8 40F20311 		movw r1, # 0x103
 247 01bc 4163     		str r1, [r0, # 0x34]	@GTIOR 通用PWM定时器IO控制寄存器
 248 01be 40F20101 		ldr r1, = 1
 249 01c2 C164     		str r1, [r0, # 0x4c]	@GTCRK捕获比较
 250              					@0X4C，0X50，0X54，0X58，0X5C，0X60
 251              	
 252 01c4 42F20F71 		ldr r1, = 9999
 253 01c8 4166     		str r1, [r0, # 0x64]	@GTPR	定时器最大计数值
 254              	
 255              		
 256              	ting:
 257 01ca 1048     		ldr r0, = 0x40040000
 258 01cc 0121     		movs r1, # 0x01
 259 01ce 234A     		ldr r2, = 0xfffff
 260 01d0 4181     		strh r1, [r0, # 0x0a]
 261              	__led_kai_yanshi:
 262 01d2 013A     		subs r2, r2, # 1
 263 01d4 FDD1     		bne __led_kai_yanshi
 264 01d6 0181     		strh r1, [r0, # 0x08]
 265 01d8 204A     		ldr r2, = 0xfffff
 266              	__led_guan_yanshi:
 267 01da 013A     		subs r2, r2, # 1
 268 01dc FDD1     		bne __led_guan_yanshi
 269 01de F4E7     		b ting
 270              	_nmi:
 271              	_Hard_Fault:
 272              	_svc_handler:
 273              	_pendsv_handler:	
 274              	_systickzhongduan:
 275              	__systick_fanhui:
 276 01e0 1F48     		ldr r0, = 0xe0000d04
 277 01e2 2049     		ldr r1, = 0x02000000
 278 01e4 0160     		str r1, [r0]                 @ 清除SYSTICK中断
 279 01e6 7047     		bx lr
 280              		
 281              	__adc120_adi:
 282              	a:
 283 01e8 0000     		movs r0, r0
 284 01ea FDE7     		b  a
 285 01ec 184A     		ldr r2, = 0x40006300
ARM GAS  1.s 			page 6


 286 01ee 40F20701 		ldr r1, = 0x07     @DTC
 287 01f2 1160     		str r1, [r2]
 288 01f4 1749     		ldr r1, = 0x1000007
 289 01f6 1160     		str r1, [r2]
 290              		
 291 01f8 7047     		bx lr
 292              	aaa:	
 293 01fa FEE7     		b aaa
 294 01fc 58BE     		bkpt # 88
 295 01fe 7047     		bx lr
 296              		
 297              		.section .data
 298              		.equ zhanding,	0x20004100
 299              		
 300              	d:
 301 0000 34123412 		.int 0x12341234,0x12341234,0x12341234,0x12341234
 301      34123412 
 301      34123412 
 301      34123412 
ARM GAS  1.s 			page 7


DEFINED SYMBOLS
                 1.s:6      .text:00000000 vectors
                            *ABS*:20004100 zhanding
                 1.s:55     .text:000000c0 kaishi
                 1.s:270    .text:000001e0 _nmi
                 1.s:271    .text:000001e0 _Hard_Fault
                 1.s:272    .text:000001e0 _svc_handler
                 1.s:273    .text:000001e0 _pendsv_handler
                 1.s:274    .text:000001e0 _systickzhongduan
                 1.s:281    .text:000001e8 __adc120_adi
                 1.s:292    .text:000001fa aaa
                 1.s:57     .text:000000c0 shizhong
                            .text:00000000 $d
                 1.s:58     .text:000000c0 $t
                 1.s:64     .text:000000d0 __deng_zhu_shi_zhong_wen_ding
                 1.s:73     .text:000000de _neicunqingling
                 1.s:77     .text:000000e4 _neicunqinglingxunhuan
                 1.s:147    .text:0000011c __mo_kuai_kong_zhi
                 1.s:162    .text:00000138 __sci_chushihua
                 1.s:180    .text:00000154 spi
                 1.s:196    .text:0000015c __kai_nvic_iser
                 1.s:201    .text:00000164 __adc_shezhi
                 1.s:211    .text:00000178 __icu_dtc
                 1.s:238    .text:000001a6 __gpt_shezhi
                 1.s:256    .text:000001ca ting
                 1.s:261    .text:000001d2 __led_kai_yanshi
                 1.s:266    .text:000001da __led_guan_yanshi
                 1.s:275    .text:000001e0 __systick_fanhui
                 1.s:282    .text:000001e8 a
                 1.s:300    .data:00000000 d
                 1.s:301    .text:00000200 $d

NO UNDEFINED SYMBOLS
